; Function Attrs: nounwind uwtable
define internal fastcc i32 @do_connect(ptr %.16.val, ptr noundef %0, i1 noundef zeroext %1) unnamed_addr #2 {
  %3 = alloca i32, align 4
  store i32 1, ptr %3, align 4
  %4 = getelementptr inbounds nuw i8, ptr %.16.val, i64 152
  %5 = load i32, ptr %4, align 8
  br i1 %1, label %6, label %22

6:                                                ; preds = %2
  %7 = call i32 @setsockopt(i32 noundef %5, i32 noundef 6, i32 noundef 30, ptr noundef nonnull %3, i32 noundef 4) #13
  %8 = icmp slt i32 %7, 0
  %9 = icmp ne ptr %0, null
  %or.cond = and i1 %9, %8
  br i1 %or.cond, label %10, label %16

10:                                               ; preds = %6
  %11 = getelementptr inbounds nuw i8, ptr %0, i64 2642
  %12 = load i64, ptr %11, align 2
  %13 = and i64 %12, 268435456
  %.not = icmp eq i64 %13, 0
  br i1 %.not, label %16, label %14

14:                                               ; preds = %10
  %15 = load i32, ptr %4, align 8
  call void (ptr, ptr, ...) @Curl_infof(ptr noundef nonnull %0, ptr noundef nonnull @.str.30, i32 noundef %15) #13
  br label %16

16:                                               ; preds = %14, %10, %6
  %17 = load i32, ptr %4, align 8
  %18 = getelementptr inbounds nuw i8, ptr %.16.val, i64 24
  %19 = getelementptr inbounds nuw i8, ptr %.16.val, i64 20
  %20 = load i32, ptr %19, align 4
  %21 = call i32 @connect(i32 noundef %17, ptr noundef nonnull %18, i32 noundef %20) #13
  br label %27

22:                                               ; preds = %2
  %23 = getelementptr inbounds nuw i8, ptr %.16.val, i64 24
  %24 = getelementptr inbounds nuw i8, ptr %.16.val, i64 20
  %25 = load i32, ptr %24, align 4
  %26 = tail call i32 @connect(i32 noundef %5, ptr noundef nonnull %23, i32 noundef %25) #13
  br label %27

27:                                               ; preds = %22, %16
  %.0 = phi i32 [ %21, %16 ], [ %26, %22 ]
  ret i32 %.0
}